; Function Attrs: mustprogress nofree norecurse nosync nounwind willreturn memory(argmem: readwrite) uwtable
define internal noundef zeroext i1 @"_ZNSt17_Function_handlerIFiPKN7rocksdb12FileMetaDataES3_EZNS0_11FileIndexer11UpdateIndexEPNS0_5ArenaEmPSt6vectorIPS1_SaIS9_EEE3$_2E10_M_managerERSt9_Any_dataRKSF_St18_Manager_operation"(ptr noundef nonnull writeonly align 8 captures(none) dereferenceable(16) %0, ptr noundef nonnull align 8 dereferenceable(16) %1, i32 noundef %2) #15 align 2 personality ptr @__gxx_personality_v0 {
  switch i32 %2, label %"_ZNSt14_Function_base13_Base_managerIZN7rocksdb11FileIndexer11UpdateIndexEPNS1_5ArenaEmPSt6vectorIPNS1_12FileMetaDataESaIS7_EEE3$_2E10_M_managerERSt9_Any_dataRKSD_St18_Manager_operation.exit" [
    i32 1, label %4
    i32 0, label %5
    i32 2, label %6
  ]

4:                                                ; preds = %3
  store ptr %1, ptr %0, align 8, !tbaa !80
  br label %"_ZNSt14_Function_base13_Base_managerIZN7rocksdb11FileIndexer11UpdateIndexEPNS1_5ArenaEmPSt6vectorIPNS1_12FileMetaDataESaIS7_EEE3$_2E10_M_managerERSt9_Any_dataRKSD_St18_Manager_operation.exit"

5:                                                ; preds = %3
  store ptr null, ptr %0, align 8, !tbaa !81
  br label %"_ZNSt14_Function_base13_Base_managerIZN7rocksdb11FileIndexer11UpdateIndexEPNS1_5ArenaEmPSt6vectorIPNS1_12FileMetaDataESaIS7_EEE3$_2E10_M_managerERSt9_Any_dataRKSD_St18_Manager_operation.exit"

6:                                                ; preds = %3
  %.val = load i64, ptr %1, align 8
  store i64 %.val, ptr %0, align 8, !tbaa !49
  br label %"_ZNSt14_Function_base13_Base_managerIZN7rocksdb11FileIndexer11UpdateIndexEPNS1_5ArenaEmPSt6vectorIPNS1_12FileMetaDataESaIS7_EEE3$_2E10_M_managerERSt9_Any_dataRKSD_St18_Manager_operation.exit"

"_ZNSt14_Function_base13_Base_managerIZN7rocksdb11FileIndexer11UpdateIndexEPNS1_5ArenaEmPSt6vectorIPNS1_12FileMetaDataESaIS7_EEE3$_2E10_M_managerERSt9_Any_dataRKSD_St18_Manager_operation.exit": ; preds = %3, %6, %5, %4
  ret i1 false
}